
mm_tile_32:     file format elf32-littleriscv


Disassembly of section .text:

80000000 <_start>:
80000000:	80f10137          	lui	sp,0x80f10
80000004:	fa010113          	addi	sp,sp,-96 # 80f0ffa0 <_end+0xefffa0>
80000008:	04112e23          	sw	ra,92(sp)
8000000c:	04812c23          	sw	s0,88(sp)
80000010:	04912a23          	sw	s1,84(sp)
80000014:	05212823          	sw	s2,80(sp)
80000018:	05312623          	sw	s3,76(sp)
8000001c:	05412423          	sw	s4,72(sp)
80000020:	05512223          	sw	s5,68(sp)
80000024:	05612023          	sw	s6,64(sp)
80000028:	03712e23          	sw	s7,60(sp)
8000002c:	03812c23          	sw	s8,56(sp)
80000030:	03912a23          	sw	s9,52(sp)
80000034:	03a12823          	sw	s10,48(sp)
80000038:	03b12623          	sw	s11,44(sp)
8000003c:	06010413          	addi	s0,sp,96
80000040:	ffff67b7          	lui	a5,0xffff6
80000044:	3c078793          	addi	a5,a5,960 # ffff63c0 <_end+0x7ffe63c0>
80000048:	00f10133          	add	sp,sp,a5
8000004c:	00010e93          	mv	t4,sp
80000050:	00f10133          	add	sp,sp,a5
80000054:	00010313          	mv	t1,sp
80000058:	00f10133          	add	sp,sp,a5
8000005c:	00010893          	mv	a7,sp
80000060:	00010293          	mv	t0,sp
80000064:	00030f93          	mv	t6,t1
80000068:	000e8f13          	mv	t5,t4
8000006c:	06400513          	li	a0,100
80000070:	00000e13          	li	t3,0
80000074:	00050393          	mv	t2,a0
80000078:	000e0813          	mv	a6,t3
8000007c:	00028593          	mv	a1,t0
80000080:	000f8613          	mv	a2,t6
80000084:	000e0793          	mv	a5,t3
80000088:	000f0693          	mv	a3,t5
8000008c:	00000713          	li	a4,0
80000090:	00e6a023          	sw	a4,0(a3)
80000094:	00f62023          	sw	a5,0(a2)
80000098:	0005a023          	sw	zero,0(a1)
8000009c:	01070733          	add	a4,a4,a6
800000a0:	00468693          	addi	a3,a3,4
800000a4:	00178793          	addi	a5,a5,1
800000a8:	00460613          	addi	a2,a2,4
800000ac:	00458593          	addi	a1,a1,4
800000b0:	fea790e3          	bne	a5,a0,80000090 <_start+0x90>
800000b4:	001e0e13          	addi	t3,t3,1
800000b8:	190f0f13          	addi	t5,t5,400
800000bc:	190f8f93          	addi	t6,t6,400
800000c0:	19028293          	addi	t0,t0,400
800000c4:	00150513          	addi	a0,a0,1
800000c8:	fa7e18e3          	bne	t3,t2,80000078 <_start+0x78>
800000cc:	00000793          	li	a5,0
800000d0:	00000713          	li	a4,0
800000d4:	06400813          	li	a6,100
800000d8:	000016b7          	lui	a3,0x1
800000dc:	c8068913          	addi	s2,a3,-896 # c80 <_start-0x7ffff380>
800000e0:	08000993          	li	s3,128
800000e4:	00070493          	mv	s1,a4
800000e8:	1600006f          	j	80000248 <_start+0x248>
800000ec:	015da023          	sw	s5,0(s11)
800000f0:	001b8b93          	addi	s7,s7,1
800000f4:	045b8663          	beq	s7,t0,80000140 <_start+0x140>
800000f8:	004c0c13          	addi	s8,s8,4
800000fc:	00470713          	addi	a4,a4,4
80000100:	050b8063          	beq	s7,a6,80000140 <_start+0x140>
80000104:	000c0d93          	mv	s11,s8
80000108:	000c2a83          	lw	s5,0(s8)
8000010c:	00070313          	mv	t1,a4
80000110:	000e0893          	mv	a7,t3
80000114:	000f8793          	mv	a5,t6
80000118:	0008a583          	lw	a1,0(a7)
8000011c:	00032a03          	lw	s4,0(t1)
80000120:	034585b3          	mul	a1,a1,s4
80000124:	00ba8ab3          	add	s5,s5,a1
80000128:	00178793          	addi	a5,a5,1
8000012c:	fdd780e3          	beq	a5,t4,800000ec <_start+0xec>
80000130:	00488893          	addi	a7,a7,4
80000134:	19030313          	addi	t1,t1,400
80000138:	ff0790e3          	bne	a5,a6,80000118 <_start+0x118>
8000013c:	fb1ff06f          	j	800000ec <_start+0xec>
80000140:	fbc42883          	lw	a7,-68(s0)
80000144:	fb842583          	lw	a1,-72(s0)
80000148:	00188893          	addi	a7,a7,1
8000014c:	02a88463          	beq	a7,a0,80000174 <_start+0x174>
80000150:	190e0e13          	addi	t3,t3,400
80000154:	19058593          	addi	a1,a1,400
80000158:	01088e63          	beq	a7,a6,80000174 <_start+0x174>
8000015c:	000c8713          	mv	a4,s9
80000160:	00058c13          	mv	s8,a1
80000164:	fb442b83          	lw	s7,-76(s0)
80000168:	fb142e23          	sw	a7,-68(s0)
8000016c:	fab42c23          	sw	a1,-72(s0)
80000170:	f95ff06f          	j	80000104 <_start+0x104>
80000174:	fb442a83          	lw	s5,-76(s0)
80000178:	fa442783          	lw	a5,-92(s0)
8000017c:	fa042883          	lw	a7,-96(s0)
80000180:	00068b93          	mv	s7,a3
80000184:	02078793          	addi	a5,a5,32
80000188:	012d06b3          	add	a3,s10,s2
8000018c:	08088893          	addi	a7,a7,128
80000190:	0a000713          	li	a4,160
80000194:	02e78e63          	beq	a5,a4,800001d0 <_start+0x1d0>
80000198:	fe078f93          	addi	t6,a5,-32
8000019c:	00269713          	slli	a4,a3,0x2
800001a0:	00770cb3          	add	s9,a4,t2
800001a4:	fac42583          	lw	a1,-84(s0)
800001a8:	00088e13          	mv	t3,a7
800001ac:	fb042703          	lw	a4,-80(s0)
800001b0:	00078e93          	mv	t4,a5
800001b4:	fb542a23          	sw	s5,-76(s0)
800001b8:	faf42223          	sw	a5,-92(s0)
800001bc:	00068d13          	mv	s10,a3
800001c0:	fb142023          	sw	a7,-96(s0)
800001c4:	00070893          	mv	a7,a4
800001c8:	000b8693          	mv	a3,s7
800001cc:	f91ff06f          	j	8000015c <_start+0x15c>
800001d0:	fa842883          	lw	a7,-88(s0)
800001d4:	000b8693          	mv	a3,s7
800001d8:	000b0593          	mv	a1,s6
800001dc:	00060313          	mv	t1,a2
800001e0:	00050e13          	mv	t3,a0
800001e4:	00048513          	mv	a0,s1
800001e8:	020a8a93          	addi	s5,s5,32
800001ec:	053a8463          	beq	s5,s3,80000234 <_start+0x234>
800001f0:	002a9793          	slli	a5,s5,0x2
800001f4:	00f68733          	add	a4,a3,a5
800001f8:	fae42623          	sw	a4,-84(s0)
800001fc:	00f303b3          	add	t2,t1,a5
80000200:	00000f93          	li	t6,0
80000204:	02000793          	li	a5,32
80000208:	00fa8733          	add	a4,s5,a5
8000020c:	fb142423          	sw	a7,-88(s0)
80000210:	00058893          	mv	a7,a1
80000214:	00068b93          	mv	s7,a3
80000218:	000f8693          	mv	a3,t6
8000021c:	00058b13          	mv	s6,a1
80000220:	00050493          	mv	s1,a0
80000224:	00030613          	mv	a2,t1
80000228:	00070293          	mv	t0,a4
8000022c:	000e0513          	mv	a0,t3
80000230:	f69ff06f          	j	80000198 <_start+0x198>
80000234:	fb042483          	lw	s1,-80(s0)
80000238:	00050e93          	mv	t4,a0
8000023c:	02048493          	addi	s1,s1,32
80000240:	012f07b3          	add	a5,t5,s2
80000244:	03348863          	beq	s1,s3,80000274 <_start+0x274>
80000248:	00279713          	slli	a4,a5,0x2
8000024c:	00ee8633          	add	a2,t4,a4
80000250:	00e886b3          	add	a3,a7,a4
80000254:	00000a93          	li	s5,0
80000258:	02048713          	addi	a4,s1,32
8000025c:	fa942823          	sw	s1,-80(s0)
80000260:	00078f13          	mv	t5,a5
80000264:	00060593          	mv	a1,a2
80000268:	000e8513          	mv	a0,t4
8000026c:	00070e13          	mv	t3,a4
80000270:	f81ff06f          	j	800001f0 <_start+0x1f0>
80000274:	0000a7b7          	lui	a5,0xa
80000278:	00f888b3          	add	a7,a7,a5
8000027c:	c3c8a503          	lw	a0,-964(a7)
80000280:	fa040113          	addi	sp,s0,-96
80000284:	05c12083          	lw	ra,92(sp)
80000288:	05812403          	lw	s0,88(sp)
8000028c:	05412483          	lw	s1,84(sp)
80000290:	05012903          	lw	s2,80(sp)
80000294:	04c12983          	lw	s3,76(sp)
80000298:	04812a03          	lw	s4,72(sp)
8000029c:	04412a83          	lw	s5,68(sp)
800002a0:	04012b03          	lw	s6,64(sp)
800002a4:	03c12b83          	lw	s7,60(sp)
800002a8:	03812c03          	lw	s8,56(sp)
800002ac:	03412c83          	lw	s9,52(sp)
800002b0:	03012d03          	lw	s10,48(sp)
800002b4:	02c12d83          	lw	s11,44(sp)
800002b8:	06010113          	addi	sp,sp,96
800002bc:	00100073          	ebreak
